target datalayout = "e-m:e-p270:32:32-p271:32:32-p272:64:64-i64:64-i128:128-f80:128-n8:16:32:64-S128"
target triple = "x86_64-pc-linux-gnu"

%struct.SlruCtlData = type { ptr, i16, i8, i32, ptr, [64 x i8] }
%union.LWLockPadded = type { %struct.LWLock, [112 x i8] }
%struct.LWLock = type { i16, %struct.pg_atomic_uint32, %struct.proclist_head }
%struct.pg_atomic_uint32 = type { i32 }
%struct.proclist_head = type { i32, i32 }
%struct.MultiXactStateData = type { i32, i32, i8, i32, i32, i32, i8, i32, i32, i32, i32, i32, %struct.ConditionVariable, [0 x i32] }
%struct.ConditionVariable = type { i8, %struct.proclist_head }
%struct.SlruSharedData = type { i32, ptr, ptr, ptr, ptr, ptr, ptr, ptr, ptr, ptr, i32, %struct.pg_atomic_uint64, i32 }
%struct.pg_atomic_uint64 = type { i64 }

@MainLWLockArray = external global ptr, align 8
@MultiXactState = internal global ptr null, align 8
@MultiXactOffsetCtlData = internal global %struct.SlruCtlData zeroinitializer, align 8
@IsBinaryUpgrade = external global i8, align 1

; Function Attrs: nounwind uwtable
define internal void @WriteMZeroPageXlogRec(i64 noundef %0, i8 noundef zeroext %1) #0 {
  %3 = alloca i64, align 8
  %4 = alloca i8, align 1
  store i64 %0, ptr %3, align 8
  store i8 %1, ptr %4, align 1
  call void @XLogBeginInsert()
  call void @XLogRegisterData(ptr noundef %3, i32 noundef 8)
  %5 = load i8, ptr %4, align 1
  %6 = call i64 @XLogInsert(i8 noundef zeroext 6, i8 noundef zeroext %5)
  ret void
}

; Function Attrs: nounwind uwtable
define internal i32 @ZeroMultiXactOffsetPage(i64 noundef %0, i1 noundef zeroext %1) #0 {
  %3 = alloca i64, align 8
  %4 = alloca i8, align 1
  %5 = alloca i32, align 4
  store i64 %0, ptr %3, align 8
  %6 = zext i1 %1 to i8
  store i8 %6, ptr %4, align 1
  call void @llvm.lifetime.start.p0(i64 4, ptr %5) #9
  %7 = load i64, ptr %3, align 8
  %8 = call i32 @SimpleLruZeroPage(ptr noundef @MultiXactOffsetCtlData, i64 noundef %7)
  store i32 %8, ptr %5, align 4
  %9 = load i8, ptr %4, align 1, !range !4, !noundef !5
  %10 = trunc i8 %9 to i1
  br i1 %10, label %11, label %13

11:                                               ; preds = %2
  %12 = load i64, ptr %3, align 8
  call void @WriteMZeroPageXlogRec(i64 noundef %12, i8 noundef zeroext 0)
  br label %13

13:                                               ; preds = %11, %2
  %14 = load i32, ptr %5, align 4
  call void @llvm.lifetime.end.p0(i64 4, ptr %5) #9
  ret i32 %14
}

; Function Attrs: inlinehint nounwind uwtable
define internal ptr @SimpleLruGetBankLock(ptr noundef %0, i64 noundef %1) #4 {
  %3 = alloca ptr, align 8
  %4 = alloca i64, align 8
  %5 = alloca i32, align 4
  store ptr %0, ptr %3, align 8
  store i64 %1, ptr %4, align 8
  call void @llvm.lifetime.start.p0(i64 4, ptr %5) #9
  %6 = load i64, ptr %4, align 8
  %7 = load ptr, ptr %3, align 8
  %8 = getelementptr inbounds nuw %struct.SlruCtlData, ptr %7, i32 0, i32 1
  %9 = load i16, ptr %8, align 8
  %10 = zext i16 %9 to i64
  %11 = srem i64 %6, %10
  %12 = trunc i64 %11 to i32
  store i32 %12, ptr %5, align 4
  %13 = load ptr, ptr %3, align 8
  %14 = getelementptr inbounds nuw %struct.SlruCtlData, ptr %13, i32 0, i32 0
  %15 = load ptr, ptr %14, align 8
  %16 = getelementptr inbounds nuw %struct.SlruSharedData, ptr %15, i32 0, i32 7
  %17 = load ptr, ptr %16, align 8
  %18 = load i32, ptr %5, align 4
  %19 = sext i32 %18 to i64
  %20 = getelementptr inbounds %union.LWLockPadded, ptr %17, i64 %19
  call void @llvm.lifetime.end.p0(i64 4, ptr %5) #9
  ret ptr %20
}

; Function Attrs: inlinehint nounwind uwtable
define internal i64 @MultiXactIdToOffsetPage(i32 noundef %0) #4 {
  %2 = alloca i32, align 4
  store i32 %0, ptr %2, align 4
  %3 = load i32, ptr %2, align 4
  %4 = zext i32 %3 to i64
  %5 = udiv i64 %4, 2048
  ret i64 %5
}

; Function Attrs: nounwind uwtable
define internal void @MaybeExtendOffsetSlru() #0 {
  %1 = alloca i64, align 8
  %2 = alloca ptr, align 8
  %3 = alloca i32, align 4
  call void @llvm.lifetime.start.p0(i64 8, ptr %1) #9
  call void @llvm.lifetime.start.p0(i64 8, ptr %2) #9
  %4 = load ptr, ptr @MultiXactState, align 8
  %5 = getelementptr inbounds nuw %struct.MultiXactStateData, ptr %4, i32 0, i32 0
  %6 = load i32, ptr %5, align 4
  %7 = call i64 @MultiXactIdToOffsetPage(i32 noundef %6)
  store i64 %7, ptr %1, align 8
  %8 = load i64, ptr %1, align 8
  %9 = call ptr @SimpleLruGetBankLock(ptr noundef @MultiXactOffsetCtlData, i64 noundef %8)
  store ptr %9, ptr %2, align 8
  %10 = load ptr, ptr %2, align 8
  %11 = call zeroext i1 @LWLockAcquire(ptr noundef %10, i32 noundef 0)
  %12 = load i64, ptr %1, align 8
  %13 = call zeroext i1 @SimpleLruDoesPhysicalPageExist(ptr noundef @MultiXactOffsetCtlData, i64 noundef %12)
  br i1 %13, label %18, label %14

14:                                               ; preds = %0
  call void @llvm.lifetime.start.p0(i64 4, ptr %3) #9
  %15 = load i64, ptr %1, align 8
  %16 = call i32 @ZeroMultiXactOffsetPage(i64 noundef %15, i1 noundef zeroext false)
  store i32 %16, ptr %3, align 4
  %17 = load i32, ptr %3, align 4
  call void @SimpleLruWritePage(ptr noundef @MultiXactOffsetCtlData, i32 noundef %17)
  call void @llvm.lifetime.end.p0(i64 4, ptr %3) #9
  br label %18

18:                                               ; preds = %14, %0
  %19 = load ptr, ptr %2, align 8
  call void @LWLockRelease(ptr noundef %19)
  call void @llvm.lifetime.end.p0(i64 8, ptr %2) #9
  call void @llvm.lifetime.end.p0(i64 8, ptr %1) #9
  ret void
}

; Function Attrs: nounwind uwtable
define dso_local void @MultiXactSetNextMXact(i32 noundef %0, i32 noundef %1) #0 {
  %3 = alloca i32, align 4
  %4 = alloca i32, align 4
  store i32 %0, ptr %3, align 4
  store i32 %1, ptr %4, align 4
  %5 = load ptr, ptr @MainLWLockArray, align 8
  %6 = getelementptr inbounds %union.LWLockPadded, ptr %5, i64 13
  %7 = call zeroext i1 @LWLockAcquire(ptr noundef %6, i32 noundef 0)
  %8 = load i32, ptr %3, align 4
  %9 = load ptr, ptr @MultiXactState, align 8
  %10 = getelementptr inbounds nuw %struct.MultiXactStateData, ptr %9, i32 0, i32 0
  store i32 %8, ptr %10, align 4
  %11 = load i32, ptr %4, align 4
  %12 = load ptr, ptr @MultiXactState, align 8
  %13 = getelementptr inbounds nuw %struct.MultiXactStateData, ptr %12, i32 0, i32 1
  store i32 %11, ptr %13, align 4
  %14 = load ptr, ptr @MainLWLockArray, align 8
  %15 = getelementptr inbounds %union.LWLockPadded, ptr %14, i64 13
  call void @LWLockRelease(ptr noundef %15)
  %16 = load i8, ptr @IsBinaryUpgrade, align 1, !range !4, !noundef !5
  %17 = trunc i8 %16 to i1
  br i1 %17, label %18, label %19

18:                                               ; preds = %2
  call void @MaybeExtendOffsetSlru()
  br label %19

19:                                               ; preds = %18, %2
  ret void
}