; Function Attrs: nounwind uwtable
define dso_local void @MultiXactSetNextMXact(i32 noundef %0, i32 noundef %1) local_unnamed_addr #0 {
  %3 = load ptr, ptr @MainLWLockArray, align 8
  %4 = getelementptr inbounds nuw i8, ptr %3, i64 1664
  %5 = tail call zeroext i1 @LWLockAcquire(ptr noundef nonnull %4, i32 noundef 0) #13
  %6 = load ptr, ptr @MultiXactState, align 8
  store i32 %0, ptr %6, align 4
  %7 = getelementptr inbounds nuw i8, ptr %6, i64 4
  store i32 %1, ptr %7, align 4
  %8 = load ptr, ptr @MainLWLockArray, align 8
  %9 = getelementptr inbounds nuw i8, ptr %8, i64 1664
  tail call void @LWLockRelease(ptr noundef nonnull %9) #13
  %10 = load i8, ptr @IsBinaryUpgrade, align 1, !range !7, !noundef !8
  %11 = trunc nuw i8 %10 to i1
  br i1 %11, label %12, label %26

12:                                               ; preds = %2
  %13 = load ptr, ptr @MultiXactState, align 8
  %14 = load i32, ptr %13, align 4
  %15 = lshr i32 %14, 11
  %16 = zext nneg i32 %15 to i64
  %MultiXactOffsetCtlData.val.i = load ptr, ptr @MultiXactOffsetCtlData, align 8
  %MultiXactOffsetCtlData.val5.i = load i16, ptr getelementptr inbounds nuw (i8, ptr @MultiXactOffsetCtlData, i64 8), align 8
  %17 = getelementptr i8, ptr %MultiXactOffsetCtlData.val.i, i64 56
  %MultiXactOffsetCtlData.val.val.i = load ptr, ptr %17, align 8
  %.rhs.trunc.i = zext i16 %MultiXactOffsetCtlData.val5.i to i32
  %18 = urem i32 %15, %.rhs.trunc.i
  %19 = shl nuw nsw i32 %18, 7
  %20 = zext nneg i32 %19 to i64
  %21 = getelementptr inbounds nuw i8, ptr %MultiXactOffsetCtlData.val.val.i, i64 %20
  %22 = tail call zeroext i1 @LWLockAcquire(ptr noundef %21, i32 noundef 0) #13
  %23 = tail call zeroext i1 @SimpleLruDoesPhysicalPageExist(ptr noundef nonnull @MultiXactOffsetCtlData, i64 noundef %16) #13
  br i1 %23, label %MaybeExtendOffsetSlru.exit, label %24

24:                                               ; preds = %12
  %25 = tail call i32 @SimpleLruZeroPage(ptr noundef nonnull @MultiXactOffsetCtlData, i64 noundef %16) #13
  tail call void @SimpleLruWritePage(ptr noundef nonnull @MultiXactOffsetCtlData, i32 noundef %25) #13
  br label %MaybeExtendOffsetSlru.exit

MaybeExtendOffsetSlru.exit:                       ; preds = %12, %24
  tail call void @LWLockRelease(ptr noundef %21) #13
  br label %26

26:                                               ; preds = %MaybeExtendOffsetSlru.exit, %2
  ret void
}